target datalayout = "e-m:e-p270:32:32-p271:32:32-p272:64:64-i64:64-i128:128-f80:128-n8:16:32:64-S128"
target triple = "x86_64-pc-linux-gnu"

%class.ref_vector = type { %class.ref_vector_core }
%class.ref_vector_core = type { %class.ref_manager_wrapper, %class.ptr_vector }
%class.ref_manager_wrapper = type { ptr }
%class.ptr_vector = type { %class.vector }
%class.vector = type { ptr }
%class.obj_ref = type { ptr, ptr }
%class.rewriter_tpl.309 = type { %class.rewriter_core, ptr, i32, %class.ptr_vector, %class.var_shifter, %class.inv_var_shifter, %class.obj_ref, %class.obj_ref.117, %class.obj_ref.117, %class.svector.27 }
%class.rewriter_core = type { ptr, ptr, i8, i8, %class.ptr_vector.105, ptr, %class.svector.107, %class.ref_vector, %class.ptr_vector.105, ptr, %class.ref_vector.91, %class.obj_hashtable.109, ptr, i32, %class.svector.115 }
%class.svector.107 = type { %class.vector.108 }
%class.vector.108 = type { ptr }
%class.ptr_vector.105 = type { %class.vector.106 }
%class.vector.106 = type { ptr }
%class.ref_vector.91 = type { %class.ref_vector_core.92 }
%class.ref_vector_core.92 = type { %class.ref_manager_wrapper.93, %class.ptr_vector.94 }
%class.ref_manager_wrapper.93 = type { ptr }
%class.ptr_vector.94 = type { %class.vector.95 }
%class.vector.95 = type { ptr }
%class.obj_hashtable.109 = type { %class.core_hashtable.base.113, [4 x i8] }
%class.core_hashtable.base.113 = type <{ ptr, i32, i32, i32 }>
%class.svector.115 = type { %class.vector.116 }
%class.vector.116 = type { ptr }
%class.var_shifter = type <{ %class.var_shifter_core, i32, i32, i32, [4 x i8] }>
%class.var_shifter_core = type { %class.rewriter_core }
%class.inv_var_shifter = type <{ %class.var_shifter_core, i32, [4 x i8] }>
%class.obj_ref.117 = type { ptr, ptr }
%class.svector.27 = type { %class.vector.28 }
%class.vector.28 = type { ptr }

; Function Attrs: mustprogress nounwind uwtable
define linkonce_odr hidden void @_ZN6vectorIjLb0EjE5resetEv(ptr noundef nonnull align 8 dereferenceable(8) %0) #4 comdat align 2 {
  %2 = alloca ptr, align 8
  store ptr %0, ptr %2, align 8, !tbaa !880
  %3 = load ptr, ptr %2, align 8
  %4 = getelementptr inbounds nuw %class.vector.28, ptr %3, i32 0, i32 0
  %5 = load ptr, ptr %4, align 8, !tbaa !882
  %6 = icmp ne ptr %5, null
  br i1 %6, label %7, label %11

7:                                                ; preds = %1
  %8 = getelementptr inbounds nuw %class.vector.28, ptr %3, i32 0, i32 0
  %9 = load ptr, ptr %8, align 8, !tbaa !882
  %10 = getelementptr inbounds i32, ptr %9, i64 -1
  store i32 0, ptr %10, align 4, !tbaa !8
  br label %11

11:                                               ; preds = %7, %1
  ret void
}

; Function Attrs: mustprogress nounwind uwtable
define linkonce_odr hidden void @_ZN6vectorIP4exprLb0EjE5resetEv(ptr noundef nonnull align 8 dereferenceable(8) %0) #4 comdat align 2 {
  %2 = alloca ptr, align 8
  store ptr %0, ptr %2, align 8, !tbaa !845
  %3 = load ptr, ptr %2, align 8
  %4 = getelementptr inbounds nuw %class.vector, ptr %3, i32 0, i32 0
  %5 = load ptr, ptr %4, align 8, !tbaa !847
  %6 = icmp ne ptr %5, null
  br i1 %6, label %7, label %11

7:                                                ; preds = %1
  %8 = getelementptr inbounds nuw %class.vector, ptr %3, i32 0, i32 0
  %9 = load ptr, ptr %8, align 8, !tbaa !847
  %10 = getelementptr inbounds i32, ptr %9, i64 -1
  store i32 0, ptr %10, align 4, !tbaa !8
  br label %11

11:                                               ; preds = %7, %1
  ret void
}

; Function Attrs: mustprogress nounwind uwtable
define linkonce_odr hidden void @_ZN20default_rewriter_cfg5resetEv(ptr noundef nonnull align 1 dereferenceable(1) %0) #4 comdat align 2 {
  %2 = alloca ptr, align 8
  store ptr %0, ptr %2, align 8, !tbaa !1089
  ret void
}

; Function Attrs: mustprogress uwtable
define internal void @_ZN12rewriter_tplIZN3smt13model_checker22replace_value_from_ctxEP4exprE16beta_reducer_cfgE5resetEv(ptr noundef nonnull align 8 dereferenceable(536) %0) #6 align 2 {
  %2 = alloca ptr, align 8
  store ptr %0, ptr %2, align 8, !tbaa !157
  %3 = load ptr, ptr %2, align 8
  %4 = getelementptr inbounds nuw %class.rewriter_tpl.309, ptr %3, i32 0, i32 1
  %5 = load ptr, ptr %4, align 8, !tbaa !1082
  call void @_ZN20default_rewriter_cfg5resetEv(ptr noundef nonnull align 1 dereferenceable(1) %5)
  call void @_ZN13rewriter_core5resetEv(ptr noundef nonnull align 8 dereferenceable(144) %3)
  %6 = getelementptr inbounds nuw %class.rewriter_tpl.309, ptr %3, i32 0, i32 3
  call void @_ZN6vectorIP4exprLb0EjE5resetEv(ptr noundef nonnull align 8 dereferenceable(8) %6)
  %7 = getelementptr inbounds nuw %class.rewriter_tpl.309, ptr %3, i32 0, i32 9
  call void @_ZN6vectorIjLb0EjE5resetEv(ptr noundef nonnull align 8 dereferenceable(8) %7)
  %8 = getelementptr inbounds nuw %class.rewriter_tpl.309, ptr %3, i32 0, i32 4
  call void @_ZN13rewriter_core5resetEv(ptr noundef nonnull align 8 dereferenceable(144) %8)
  %9 = getelementptr inbounds nuw %class.rewriter_tpl.309, ptr %3, i32 0, i32 5
  call void @_ZN13rewriter_core5resetEv(ptr noundef nonnull align 8 dereferenceable(144) %9)
  ret void
}